target datalayout = "e-m:e-p270:32:32-p271:32:32-p272:64:64-i64:64-i128:128-f80:128-n8:16:32:64-S128"
target triple = "x86_64-pc-linux-gnu"

%struct.persist_msg_t = type { ptr, ptr, i16 }
%struct.job_record = type { i32, ptr, ptr, ptr, ptr, i16, i32, i32, i32, ptr, i32, ptr, ptr, i16, ptr, double, i64, ptr, ptr, ptr, ptr, ptr, ptr, i32, ptr, i32, i64, i64, i32, i32, ptr, i16, i64, i64, i8, i32, ptr, ptr, ptr, ptr, ptr, ptr, ptr, ptr, i32, ptr, ptr, i32, ptr, i32, ptr, i32, ptr, i32, ptr, ptr, ptr, ptr, ptr, ptr, i32, i16, i64, ptr, ptr, ptr, ptr, %struct.acct_policy_limit_set_t, i16, ptr, ptr, ptr, ptr, ptr, i32, ptr, ptr, ptr, ptr, ptr, i32, i32, ptr, ptr, ptr, i16, ptr, ptr, i8, ptr, ptr, i64, i64, i8, i32, i32, i8, i32, ptr, i32, i64, i32, ptr, ptr, ptr, i8, i16, i64, i32, ptr, ptr, ptr, ptr, ptr, i16, i32, ptr, ptr, ptr, ptr, i32, ptr, i32, i16, i64, ptr, i32, i32, ptr, i64, ptr, ptr, i64, i32, i32, i64, i32, i32, ptr, ptr, ptr, ptr, ptr, ptr, ptr, ptr, ptr, ptr, ptr, ptr, i32, ptr, i16, i16, i16, i16, ptr, i32, i32, i8, i64 }
%struct.acct_policy_limit_set_t = type { i16, i16, ptr }
%struct.job_details_t = type { i32, ptr, i64, ptr, i32, ptr, i64, ptr, i16, i16, ptr, i16, i32, i32, i32, i16, ptr, i16, ptr, ptr, ptr, i16, ptr, ptr, ptr, ptr, i32, ptr, ptr, ptr, ptr, ptr, i32, i32, i32, ptr, ptr, i16, i32, i32, i32, i32, i32, i32, i16, i16, i32, i8, i8, i32, i32, i64, i64, i16, i32, ptr, ptr, i8, ptr, i32, ptr, i64, ptr, ptr, i16, i16, i16, i8, ptr, ptr, ptr, ptr, ptr, ptr, i64, i32, i32, i8, ptr, i16, ptr, ptr, i16 }
%struct.dbd_job_heavy_msg_t = type { ptr, ptr, ptr, ptr, ptr }

@.str.75 = private unnamed_addr constant [50 x i8] c"%s: Not inputing this job, it has no submit time.\00", align 1
@__func__.jobacct_storage_p_job_heavy = private unnamed_addr constant [28 x i8] c"jobacct_storage_p_job_heavy\00", align 1
@.str.76 = private unnamed_addr constant [4 x i8] c"%s\0A\00", align 1

; Function Attrs: nounwind uwtable
define dso_local i32 @jobacct_storage_p_job_heavy(ptr noundef %0, ptr noundef %1) #0 {
  %3 = alloca i32, align 4
  %4 = alloca ptr, align 8
  %5 = alloca ptr, align 8
  %6 = alloca %struct.persist_msg_t, align 8
  %7 = alloca %struct.dbd_job_heavy_msg_t, align 8
  %8 = alloca i32, align 4
  %9 = alloca i32, align 4
  %10 = alloca i32, align 4
  %11 = alloca ptr, align 8
  %12 = alloca ptr, align 8
  %13 = alloca i32, align 4
  store ptr %0, ptr %4, align 8
  store ptr %1, ptr %5, align 8
  call void @llvm.lifetime.start.p0(i64 24, ptr %6) #9
  call void @llvm.memset.p0.i64(ptr align 8 %6, i8 0, i64 24, i1 false)
  call void @llvm.lifetime.start.p0(i64 40, ptr %7) #9
  call void @llvm.lifetime.start.p0(i64 4, ptr %8) #9
  store i32 0, ptr %8, align 4
  %14 = load ptr, ptr %5, align 8
  %15 = getelementptr inbounds nuw %struct.job_record, ptr %14, i32 0, i32 16
  %16 = load i64, ptr %15, align 8
  %17 = and i64 %16, 34359738432
  %18 = icmp ne i64 %17, 0
  br i1 %18, label %20, label %19

19:                                               ; preds = %2
  store i32 0, ptr %3, align 4
  store i32 1, ptr %9, align 4
  br label %111

20:                                               ; preds = %2
  %21 = load ptr, ptr %5, align 8
  %22 = getelementptr inbounds nuw %struct.job_record, ptr %21, i32 0, i32 26
  %23 = load i64, ptr %22, align 8
  %24 = icmp ne i64 %23, 0
  br i1 %24, label %39, label %25

25:                                               ; preds = %20
  %26 = load ptr, ptr %5, align 8
  %27 = getelementptr inbounds nuw %struct.job_record, ptr %26, i32 0, i32 30
  %28 = load ptr, ptr %27, align 8
  %29 = icmp ne ptr %28, null
  br i1 %29, label %30, label %37

30:                                               ; preds = %25
  %31 = load ptr, ptr %5, align 8
  %32 = getelementptr inbounds nuw %struct.job_record, ptr %31, i32 0, i32 30
  %33 = load ptr, ptr %32, align 8
  %34 = getelementptr inbounds nuw %struct.job_details_t, ptr %33, i32 0, i32 74
  %35 = load i64, ptr %34, align 8
  %36 = icmp ne i64 %35, 0
  br i1 %36, label %39, label %37

37:                                               ; preds = %30, %25
  %38 = call i32 (ptr, ...) @slurm_error(ptr noundef @.str.75, ptr noundef @__func__.jobacct_storage_p_job_heavy)
  store i32 -1, ptr %3, align 4
  store i32 1, ptr %9, align 4
  br label %111

39:                                               ; preds = %30, %20
  call void @llvm.memset.p0.i64(ptr align 8 %7, i8 0, i64 40, i1 false)
  %40 = load ptr, ptr %5, align 8
  %41 = getelementptr inbounds nuw %struct.job_record, ptr %40, i32 0, i32 16
  %42 = load i64, ptr %41, align 8
  %43 = and i64 %42, 64
  %44 = icmp ne i64 %43, 0
  br i1 %44, label %45, label %76

45:                                               ; preds = %39
  call void @llvm.lifetime.start.p0(i64 4, ptr %10) #9
  store i32 0, ptr %10, align 4
  call void @llvm.lifetime.start.p0(i64 8, ptr %11) #9
  %46 = load ptr, ptr %5, align 8
  %47 = call ptr @get_job_env(ptr noundef %46, ptr noundef %10)
  store ptr %47, ptr %11, align 8
  %48 = load ptr, ptr %11, align 8
  %49 = icmp ne ptr %48, null
  br i1 %49, label %50, label %69

50:                                               ; preds = %45
  call void @llvm.lifetime.start.p0(i64 8, ptr %12) #9
  store ptr null, ptr %12, align 8
  call void @llvm.lifetime.start.p0(i64 4, ptr %13) #9
  store i32 0, ptr %13, align 4
  br label %51

51:                                               ; preds = %63, %50
  %52 = load i32, ptr %13, align 4
  %53 = load i32, ptr %10, align 4
  %54 = icmp ult i32 %52, %53
  br i1 %54, label %56, label %55

55:                                               ; preds = %51
  store i32 2, ptr %9, align 4
  call void @llvm.lifetime.end.p0(i64 4, ptr %13) #9
  br label %66

56:                                               ; preds = %51
  %57 = getelementptr inbounds nuw %struct.dbd_job_heavy_msg_t, ptr %7, i32 0, i32 0
  %58 = load ptr, ptr %11, align 8
  %59 = load i32, ptr %13, align 4
  %60 = sext i32 %59 to i64
  %61 = getelementptr inbounds ptr, ptr %58, i64 %60
  %62 = load ptr, ptr %61, align 8
  call void (ptr, ptr, ptr, ...) @slurm_xstrfmtcatat(ptr noundef %57, ptr noundef %12, ptr noundef @.str.76, ptr noundef %62)
  br label %63

63:                                               ; preds = %56
  %64 = load i32, ptr %13, align 4
  %65 = add nsw i32 %64, 1
  store i32 %65, ptr %13, align 4
  br label %51, !llvm.loop !13

66:                                               ; preds = %55
  %67 = load ptr, ptr %11, align 8
  %68 = getelementptr inbounds ptr, ptr %67, i64 0
  call void @slurm_xfree(ptr noundef %68)
  call void @slurm_xfree(ptr noundef %11)
  call void @llvm.lifetime.end.p0(i64 8, ptr %12) #9
  br label %69

69:                                               ; preds = %66, %45
  %70 = load ptr, ptr %5, align 8
  %71 = getelementptr inbounds nuw %struct.job_record, ptr %70, i32 0, i32 30
  %72 = load ptr, ptr %71, align 8
  %73 = getelementptr inbounds nuw %struct.job_details_t, ptr %72, i32 0, i32 22
  %74 = load ptr, ptr %73, align 8
  %75 = getelementptr inbounds nuw %struct.dbd_job_heavy_msg_t, ptr %7, i32 0, i32 1
  store ptr %74, ptr %75, align 8
  call void @llvm.lifetime.end.p0(i64 8, ptr %11) #9
  call void @llvm.lifetime.end.p0(i64 4, ptr %10) #9
  br label %76

76:                                               ; preds = %69, %39
  %77 = load ptr, ptr %5, align 8
  %78 = getelementptr inbounds nuw %struct.job_record, ptr %77, i32 0, i32 16
  %79 = load i64, ptr %78, align 8
  %80 = and i64 %79, 34359738368
  %81 = icmp ne i64 %80, 0
  br i1 %81, label %82, label %92

82:                                               ; preds = %76
  %83 = load ptr, ptr %5, align 8
  %84 = call ptr @get_job_script(ptr noundef %83)
  %85 = getelementptr inbounds nuw %struct.dbd_job_heavy_msg_t, ptr %7, i32 0, i32 4
  store ptr %84, ptr %85, align 8
  %86 = load ptr, ptr %5, align 8
  %87 = getelementptr inbounds nuw %struct.job_record, ptr %86, i32 0, i32 30
  %88 = load ptr, ptr %87, align 8
  %89 = getelementptr inbounds nuw %struct.job_details_t, ptr %88, i32 0, i32 69
  %90 = load ptr, ptr %89, align 8
  %91 = getelementptr inbounds nuw %struct.dbd_job_heavy_msg_t, ptr %7, i32 0, i32 3
  store ptr %90, ptr %91, align 8
  br label %92

92:                                               ; preds = %82, %76
  %93 = getelementptr inbounds nuw %struct.persist_msg_t, ptr %6, i32 0, i32 2
  store i16 1498, ptr %93, align 8
  %94 = load ptr, ptr %4, align 8
  %95 = getelementptr inbounds nuw %struct.persist_msg_t, ptr %6, i32 0, i32 0
  store ptr %94, ptr %95, align 8
  %96 = getelementptr inbounds nuw %struct.persist_msg_t, ptr %6, i32 0, i32 1
  store ptr %7, ptr %96, align 8
  %97 = call i32 @slurmdbd_agent_send(i16 noundef zeroext 11008, ptr noundef %6)
  store i32 %97, ptr %8, align 4
  br label %98

98:                                               ; preds = %92
  %99 = getelementptr inbounds nuw %struct.dbd_job_heavy_msg_t, ptr %7, i32 0, i32 4
  %100 = load ptr, ptr %99, align 8
  %101 = icmp ne ptr %100, null
  br i1 %101, label %102, label %105

102:                                              ; preds = %98
  %103 = getelementptr inbounds nuw %struct.dbd_job_heavy_msg_t, ptr %7, i32 0, i32 4
  %104 = load ptr, ptr %103, align 8
  call void @slurm_free_buf(ptr noundef %104)
  br label %105

105:                                              ; preds = %102, %98
  %106 = getelementptr inbounds nuw %struct.dbd_job_heavy_msg_t, ptr %7, i32 0, i32 4
  store ptr null, ptr %106, align 8
  br label %107

107:                                              ; preds = %105
  br label %108

108:                                              ; preds = %107
  %109 = getelementptr inbounds nuw %struct.dbd_job_heavy_msg_t, ptr %7, i32 0, i32 0
  call void @slurm_xfree(ptr noundef %109)
  %110 = load i32, ptr %8, align 4
  store i32 %110, ptr %3, align 4
  store i32 1, ptr %9, align 4
  br label %111

111:                                              ; preds = %108, %37, %19
  call void @llvm.lifetime.end.p0(i64 4, ptr %8) #9
  call void @llvm.lifetime.end.p0(i64 40, ptr %7) #9
  call void @llvm.lifetime.end.p0(i64 24, ptr %6) #9
  %112 = load i32, ptr %3, align 4
  ret i32 %112
}