; Function Attrs: nounwind uwtable
define dso_local i32 @jobacct_storage_p_job_heavy(ptr noundef %0, ptr noundef %1) local_unnamed_addr #0 {
  %3 = alloca %struct.persist_msg_t, align 8
  %4 = alloca %struct.dbd_job_heavy_msg_t, align 8
  %5 = alloca i32, align 4
  %6 = alloca ptr, align 8
  %7 = alloca ptr, align 8
  call void @llvm.lifetime.start.p0(i64 24, ptr nonnull %3) #11
  %8 = getelementptr inbounds nuw i8, ptr %3, i64 16
  store i64 0, ptr %8, align 8
  call void @llvm.lifetime.start.p0(i64 40, ptr nonnull %4) #11
  %9 = getelementptr inbounds nuw i8, ptr %1, i64 112
  %10 = load i64, ptr %9, align 8
  %11 = and i64 %10, 34359738432
  %.not = icmp eq i64 %11, 0
  br i1 %.not, label %59, label %12

12:                                               ; preds = %2
  %13 = getelementptr inbounds nuw i8, ptr %1, i64 192
  %14 = load i64, ptr %13, align 8
  %.not18 = icmp eq i64 %14, 0
  br i1 %.not18, label %15, label %23

15:                                               ; preds = %12
  %16 = getelementptr inbounds nuw i8, ptr %1, i64 216
  %17 = load ptr, ptr %16, align 8
  %.not19 = icmp eq ptr %17, null
  br i1 %.not19, label %21, label %18

18:                                               ; preds = %15
  %19 = getelementptr inbounds nuw i8, ptr %17, i64 464
  %20 = load i64, ptr %19, align 8
  %.not20 = icmp eq i64 %20, 0
  br i1 %.not20, label %21, label %23

21:                                               ; preds = %18, %15
  %22 = tail call i32 (ptr, ...) @slurm_error(ptr noundef nonnull @.str.75, ptr noundef nonnull @__func__.jobacct_storage_p_job_heavy) #11
  br label %59

23:                                               ; preds = %18, %12
  call void @llvm.memset.p0.i64(ptr noundef nonnull align 8 dereferenceable(40) %4, i8 0, i64 40, i1 false)
  %24 = and i64 %10, 64
  %.not21 = icmp eq i64 %24, 0
  br i1 %.not21, label %40, label %25

25:                                               ; preds = %23
  call void @llvm.lifetime.start.p0(i64 4, ptr nonnull %5) #11
  store i32 0, ptr %5, align 4
  call void @llvm.lifetime.start.p0(i64 8, ptr nonnull %6) #11
  %26 = call ptr @get_job_env(ptr noundef nonnull %1, ptr noundef nonnull %5) #11
  store ptr %26, ptr %6, align 8
  %.not22 = icmp eq ptr %26, null
  br i1 %.not22, label %34, label %27

27:                                               ; preds = %25
  call void @llvm.lifetime.start.p0(i64 8, ptr nonnull %7) #11
  store ptr null, ptr %7, align 8
  %28 = load i32, ptr %5, align 4
  %.not26 = icmp eq i32 %28, 0
  br i1 %.not26, label %._crit_edge, label %.lr.ph

._crit_edge:                                      ; preds = %.lr.ph, %27
  call void @slurm_xfree(ptr noundef nonnull %26) #11
  call void @slurm_xfree(ptr noundef nonnull %6) #11
  call void @llvm.lifetime.end.p0(i64 8, ptr nonnull %7) #11
  br label %34

.lr.ph:                                           ; preds = %27, %.lr.ph
  %indvars.iv = phi i64 [ %indvars.iv.next, %.lr.ph ], [ 0, %27 ]
  %29 = getelementptr inbounds nuw ptr, ptr %26, i64 %indvars.iv
  %30 = load ptr, ptr %29, align 8
  call void (ptr, ptr, ptr, ...) @slurm_xstrfmtcatat(ptr noundef nonnull %4, ptr noundef nonnull %7, ptr noundef nonnull @.str.76, ptr noundef %30) #11
  %indvars.iv.next = add nuw nsw i64 %indvars.iv, 1
  %31 = load i32, ptr %5, align 4
  %32 = zext i32 %31 to i64
  %33 = icmp samesign ult i64 %indvars.iv.next, %32
  br i1 %33, label %.lr.ph, label %._crit_edge, !llvm.loop !11

34:                                               ; preds = %._crit_edge, %25
  %35 = getelementptr inbounds nuw i8, ptr %1, i64 216
  %36 = load ptr, ptr %35, align 8
  %37 = getelementptr inbounds nuw i8, ptr %36, i64 152
  %38 = load ptr, ptr %37, align 8
  %39 = getelementptr inbounds nuw i8, ptr %4, i64 8
  store ptr %38, ptr %39, align 8
  call void @llvm.lifetime.end.p0(i64 8, ptr nonnull %6) #11
  call void @llvm.lifetime.end.p0(i64 4, ptr nonnull %5) #11
  %.pre = load i64, ptr %9, align 8
  br label %40

40:                                               ; preds = %34, %23
  %41 = phi i64 [ %.pre, %34 ], [ %10, %23 ]
  %42 = and i64 %41, 34359738368
  %.not23 = icmp eq i64 %42, 0
  br i1 %.not23, label %51, label %43

43:                                               ; preds = %40
  %44 = call ptr @get_job_script(ptr noundef nonnull %1) #11
  %45 = getelementptr inbounds nuw i8, ptr %4, i64 32
  store ptr %44, ptr %45, align 8
  %46 = getelementptr inbounds nuw i8, ptr %1, i64 216
  %47 = load ptr, ptr %46, align 8
  %48 = getelementptr inbounds nuw i8, ptr %47, i64 424
  %49 = load ptr, ptr %48, align 8
  %50 = getelementptr inbounds nuw i8, ptr %4, i64 24
  store ptr %49, ptr %50, align 8
  br label %51

51:                                               ; preds = %43, %40
  %52 = getelementptr inbounds nuw i8, ptr %3, i64 16
  store i16 1498, ptr %52, align 8
  store ptr %0, ptr %3, align 8
  %53 = getelementptr inbounds nuw i8, ptr %3, i64 8
  store ptr %4, ptr %53, align 8
  %54 = call i32 @slurmdbd_agent_send(i16 noundef zeroext 11008, ptr noundef nonnull %3) #11
  %55 = getelementptr inbounds nuw i8, ptr %4, i64 32
  %56 = load ptr, ptr %55, align 8
  %.not24 = icmp eq ptr %56, null
  br i1 %.not24, label %58, label %57

57:                                               ; preds = %51
  call void @slurm_free_buf(ptr noundef nonnull %56) #11
  br label %58

58:                                               ; preds = %57, %51
  store ptr null, ptr %55, align 8
  call void @slurm_xfree(ptr noundef nonnull %4) #11
  br label %59

59:                                               ; preds = %2, %58, %21
  %.015 = phi i32 [ %54, %58 ], [ -1, %21 ], [ 0, %2 ]
  call void @llvm.lifetime.end.p0(i64 40, ptr nonnull %4) #11
  call void @llvm.lifetime.end.p0(i64 24, ptr nonnull %3) #11
  ret i32 %.015
}